; ModuleID = '57/629.c'
source_filename = "57/629.c"
target datalayout = "e-m:e-p270:32:32-p271:32:32-p272:64:64-i64:64-f80:128-n8:16:32:64-S128"
target triple = "x86_64-pc-linux-gnu"

@.str = private unnamed_addr constant [3 x i8] c"%d\00", align 1
@.str.1 = private unnamed_addr constant [3 x i8] c"%s\00", align 1
@.str.2 = private unnamed_addr constant [2 x i8] c"\0A\00", align 1

; Function Attrs: noinline nounwind uwtable
define dso_local i32 @main() #0 {
  %1 = alloca i32, align 4
  %2 = alloca i32, align 4
  %3 = alloca i32, align 4
  %4 = alloca i32, align 4
  %5 = alloca i32, align 4
  %6 = alloca [51 x [32 x i8]], align 16
  store i32 0, i32* %1, align 4
  %7 = call i32 (i8*, ...) @__isoc99_scanf(i8* getelementptr inbounds ([3 x i8], [3 x i8]* @.str, i64 0, i64 0), i32* %2)
  store i32 0, i32* %3, align 4
  br label %8

8:                                                ; preds = %133, %0
  %9 = load i32, i32* %3, align 4
  %10 = load i32, i32* %2, align 4
  %11 = icmp slt i32 %9, %10
  br i1 %11, label %12, label %136

12:                                               ; preds = %8
  %13 = load i32, i32* %3, align 4
  %14 = sext i32 %13 to i64
  %15 = getelementptr inbounds [51 x [32 x i8]], [51 x [32 x i8]]* %6, i64 0, i64 %14
  %16 = getelementptr inbounds [32 x i8], [32 x i8]* %15, i64 0, i64 0
  %17 = call i32 (i8*, ...) @__isoc99_scanf(i8* getelementptr inbounds ([3 x i8], [3 x i8]* @.str.1, i64 0, i64 0), i8* %16)
  %18 = load i32, i32* %3, align 4
  %19 = sext i32 %18 to i64
  %20 = getelementptr inbounds [51 x [32 x i8]], [51 x [32 x i8]]* %6, i64 0, i64 %19
  %21 = getelementptr inbounds [32 x i8], [32 x i8]* %20, i64 0, i64 0
  %22 = call i64 @strlen(i8* %21) #3
  %23 = trunc i64 %22 to i32
  store i32 %23, i32* %5, align 4
  %24 = load i32, i32* %5, align 4
  %25 = icmp sge i32 %24, 4
  br i1 %25, label %26, label %68

26:                                               ; preds = %12
  %27 = load i32, i32* %3, align 4
  %28 = sext i32 %27 to i64
  %29 = getelementptr inbounds [51 x [32 x i8]], [51 x [32 x i8]]* %6, i64 0, i64 %28
  %30 = load i32, i32* %5, align 4
  %31 = sub nsw i32 %30, 1
  %32 = sext i32 %31 to i64
  %33 = getelementptr inbounds [32 x i8], [32 x i8]* %29, i64 0, i64 %32
  %34 = load i8, i8* %33, align 1
  %35 = sext i8 %34 to i32
  %36 = icmp eq i32 %35, 103
  br i1 %36, label %37, label %67

37:                                               ; preds = %26
  %38 = load i32, i32* %3, align 4
  %39 = sext i32 %38 to i64
  %40 = getelementptr inbounds [51 x [32 x i8]], [51 x [32 x i8]]* %6, i64 0, i64 %39
  %41 = load i32, i32* %5, align 4
  %42 = sub nsw i32 %41, 2
  %43 = sext i32 %42 to i64
  %44 = getelementptr inbounds [32 x i8], [32 x i8]* %40, i64 0, i64 %43
  %45 = load i8, i8* %44, align 1
  %46 = sext i8 %45 to i32
  %47 = icmp eq i32 %46, 110
  br i1 %47, label %48, label %67

48:                                               ; preds = %37
  %49 = load i32, i32* %3, align 4
  %50 = sext i32 %49 to i64
  %51 = getelementptr inbounds [51 x [32 x i8]], [51 x [32 x i8]]* %6, i64 0, i64 %50
  %52 = load i32, i32* %5, align 4
  %53 = sub nsw i32 %52, 3
  %54 = sext i32 %53 to i64
  %55 = getelementptr inbounds [32 x i8], [32 x i8]* %51, i64 0, i64 %54
  %56 = load i8, i8* %55, align 1
  %57 = sext i8 %56 to i32
  %58 = icmp eq i32 %57, 105
  br i1 %58, label %59, label %67

59:                                               ; preds = %48
  %60 = load i32, i32* %3, align 4
  %61 = sext i32 %60 to i64
  %62 = getelementptr inbounds [51 x [32 x i8]], [51 x [32 x i8]]* %6, i64 0, i64 %61
  %63 = load i32, i32* %5, align 4
  %64 = sub nsw i32 %63, 3
  %65 = sext i32 %64 to i64
  %66 = getelementptr inbounds [32 x i8], [32 x i8]* %62, i64 0, i64 %65
  store i8 0, i8* %66, align 1
  br label %67

67:                                               ; preds = %59, %48, %37, %26
  br label %68

68:                                               ; preds = %67, %12
  %69 = load i32, i32* %5, align 4
  %70 = icmp sge i32 %69, 3
  br i1 %70, label %71, label %132

71:                                               ; preds = %68
  %72 = load i32, i32* %3, align 4
  %73 = sext i32 %72 to i64
  %74 = getelementptr inbounds [51 x [32 x i8]], [51 x [32 x i8]]* %6, i64 0, i64 %73
  %75 = load i32, i32* %5, align 4
  %76 = sub nsw i32 %75, 1
  %77 = sext i32 %76 to i64
  %78 = getelementptr inbounds [32 x i8], [32 x i8]* %74, i64 0, i64 %77
  %79 = load i8, i8* %78, align 1
  %80 = sext i8 %79 to i32
  %81 = icmp eq i32 %80, 114
  br i1 %81, label %82, label %101

82:                                               ; preds = %71
  %83 = load i32, i32* %3, align 4
  %84 = sext i32 %83 to i64
  %85 = getelementptr inbounds [51 x [32 x i8]], [51 x [32 x i8]]* %6, i64 0, i64 %84
  %86 = load i32, i32* %5, align 4
  %87 = sub nsw i32 %86, 2
  %88 = sext i32 %87 to i64
  %89 = getelementptr inbounds [32 x i8], [32 x i8]* %85, i64 0, i64 %88
  %90 = load i8, i8* %89, align 1
  %91 = sext i8 %90 to i32
  %92 = icmp eq i32 %91, 101
  br i1 %92, label %93, label %101

93:                                               ; preds = %82
  %94 = load i32, i32* %3, align 4
  %95 = sext i32 %94 to i64
  %96 = getelementptr inbounds [51 x [32 x i8]], [51 x [32 x i8]]* %6, i64 0, i64 %95
  %97 = load i32, i32* %5, align 4
  %98 = sub nsw i32 %97, 2
  %99 = sext i32 %98 to i64
  %100 = getelementptr inbounds [32 x i8], [32 x i8]* %96, i64 0, i64 %99
  store i8 0, i8* %100, align 1
  br label %101

101:                                              ; preds = %93, %82, %71
  %102 = load i32, i32* %3, align 4
  %103 = sext i32 %102 to i64
  %104 = getelementptr inbounds [51 x [32 x i8]], [51 x [32 x i8]]* %6, i64 0, i64 %103
  %105 = load i32, i32* %5, align 4
  %106 = sub nsw i32 %105, 1
  %107 = sext i32 %106 to i64
  %108 = getelementptr inbounds [32 x i8], [32 x i8]* %104, i64 0, i64 %107
  %109 = load i8, i8* %108, align 1
  %110 = sext i8 %109 to i32
  %111 = icmp eq i32 %110, 121
  br i1 %111, label %112, label %131

112:                                              ; preds = %101
  %113 = load i32, i32* %3, align 4
  %114 = sext i32 %113 to i64
  %115 = getelementptr inbounds [51 x [32 x i8]], [51 x [32 x i8]]* %6, i64 0, i64 %114
  %116 = load i32, i32* %5, align 4
  %117 = sub nsw i32 %116, 2
  %118 = sext i32 %117 to i64
  %119 = getelementptr inbounds [32 x i8], [32 x i8]* %115, i64 0, i64 %118
  %120 = load i8, i8* %119, align 1
  %121 = sext i8 %120 to i32
  %122 = icmp eq i32 %121, 108
  br i1 %122, label %123, label %131

123:                                              ; preds = %112
  %124 = load i32, i32* %3, align 4
  %125 = sext i32 %124 to i64
  %126 = getelementptr inbounds [51 x [32 x i8]], [51 x [32 x i8]]* %6, i64 0, i64 %125
  %127 = load i32, i32* %5, align 4
  %128 = sub nsw i32 %127, 2
  %129 = sext i32 %128 to i64
  %130 = getelementptr inbounds [32 x i8], [32 x i8]* %126, i64 0, i64 %129
  store i8 0, i8* %130, align 1
  br label %131

131:                                              ; preds = %123, %112, %101
  br label %132

132:                                              ; preds = %131, %68
  br label %133

133:                                              ; preds = %132
  %134 = load i32, i32* %3, align 4
  %135 = add nsw i32 %134, 1
  store i32 %135, i32* %3, align 4
  br label %8

136:                                              ; preds = %8
  store i32 0, i32* %3, align 4
  br label %137

137:                                              ; preds = %152, %136
  %138 = load i32, i32* %3, align 4
  %139 = load i32, i32* %2, align 4
  %140 = icmp slt i32 %138, %139
  br i1 %140, label %141, label %155

141:                                              ; preds = %137
  %142 = load i32, i32* %3, align 4
  %143 = icmp ne i32 %142, 0
  br i1 %143, label %144, label %146

144:                                              ; preds = %141
  %145 = call i32 (i8*, ...) @printf(i8* getelementptr inbounds ([2 x i8], [2 x i8]* @.str.2, i64 0, i64 0))
  br label %146

146:                                              ; preds = %144, %141
  %147 = load i32, i32* %3, align 4
  %148 = sext i32 %147 to i64
  %149 = getelementptr inbounds [51 x [32 x i8]], [51 x [32 x i8]]* %6, i64 0, i64 %148
  %150 = getelementptr inbounds [32 x i8], [32 x i8]* %149, i64 0, i64 0
  %151 = call i32 (i8*, ...) @printf(i8* getelementptr inbounds ([3 x i8], [3 x i8]* @.str.1, i64 0, i64 0), i8* %150)
  br label %152

152:                                              ; preds = %146
  %153 = load i32, i32* %3, align 4
  %154 = add nsw i32 %153, 1
  store i32 %154, i32* %3, align 4
  br label %137

155:                                              ; preds = %137
  %156 = call i32 (i8*, ...) @__isoc99_scanf(i8* getelementptr inbounds ([3 x i8], [3 x i8]* @.str, i64 0, i64 0), i32* %2)
  ret i32 0
}

declare dso_local i32 @__isoc99_scanf(i8*, ...) #1

; Function Attrs: nounwind readonly
declare dso_local i64 @strlen(i8*) #2

declare dso_local i32 @printf(i8*, ...) #1


!llvm.module.flags = !{!0}
!llvm.ident = !{!1}

!0 = !{i32 1, !"wchar_size", i32 4}
!1 = !{!"clang version 10.0.0-4ubuntu1 "}
